; ModuleID = '20/658.c'
source_filename = "20/658.c"
target datalayout = "e-m:e-p270:32:32-p271:32:32-p272:64:64-i64:64-f80:128-n8:16:32:64-S128"
target triple = "x86_64-pc-linux-gnu"

@.str = private unnamed_addr constant [6 x i8] c"%s %s\00", align 1
@.str.1 = private unnamed_addr constant [4 x i8] c"%s\0A\00", align 1

; Function Attrs: noinline nounwind uwtable
define dso_local void @main() #0 {
  %1 = alloca i8*, align 8
  %2 = alloca i8*, align 8
  %3 = alloca i8*, align 8
  %4 = alloca i32, align 4
  %5 = alloca i32, align 4
  %6 = alloca i32, align 4
  %7 = alloca i32, align 4
  store i32 0, i32* %7, align 4
  %8 = call noalias i8* @calloc(i64 1, i64 12) #4
  store i8* %8, i8** %1, align 8
  %9 = call noalias i8* @calloc(i64 1, i64 5) #4
  store i8* %9, i8** %2, align 8
  %10 = call noalias i8* @calloc(i64 1, i64 20) #4
  store i8* %10, i8** %3, align 8
  br label %11

11:                                               ; preds = %64, %0
  %12 = load i8*, i8** %1, align 8
  %13 = load i8*, i8** %2, align 8
  %14 = call i32 (i8*, ...) @__isoc99_scanf(i8* getelementptr inbounds ([6 x i8], [6 x i8]* @.str, i64 0, i64 0), i8* %12, i8* %13)
  %15 = icmp ne i32 %14, -1
  br i1 %15, label %16, label %86

16:                                               ; preds = %11
  store i32 0, i32* %4, align 4
  br label %17

17:                                               ; preds = %40, %16
  %18 = load i32, i32* %4, align 4
  %19 = load i8*, i8** %1, align 8
  %20 = call i64 @strlen(i8* %19) #5
  %21 = trunc i64 %20 to i32
  store i32 %21, i32* %6, align 4
  %22 = icmp slt i32 %18, %21
  br i1 %22, label %23, label %43

23:                                               ; preds = %17
  %24 = load i8*, i8** %1, align 8
  %25 = load i32, i32* %4, align 4
  %26 = sext i32 %25 to i64
  %27 = getelementptr inbounds i8, i8* %24, i64 %26
  %28 = load i8, i8* %27, align 1
  %29 = sext i8 %28 to i32
  %30 = load i32, i32* %7, align 4
  %31 = icmp sgt i32 %29, %30
  br i1 %31, label %32, label %39

32:                                               ; preds = %23
  %33 = load i8*, i8** %1, align 8
  %34 = load i32, i32* %4, align 4
  %35 = sext i32 %34 to i64
  %36 = getelementptr inbounds i8, i8* %33, i64 %35
  %37 = load i8, i8* %36, align 1
  %38 = sext i8 %37 to i32
  store i32 %38, i32* %7, align 4
  br label %39

39:                                               ; preds = %32, %23
  br label %40

40:                                               ; preds = %39
  %41 = load i32, i32* %4, align 4
  %42 = add nsw i32 %41, 1
  store i32 %42, i32* %4, align 4
  br label %17

43:                                               ; preds = %17
  store i32 0, i32* %4, align 4
  br label %44

44:                                               ; preds = %61, %43
  %45 = load i32, i32* %4, align 4
  %46 = load i8*, i8** %1, align 8
  %47 = call i64 @strlen(i8* %46) #5
  %48 = trunc i64 %47 to i32
  store i32 %48, i32* %6, align 4
  %49 = icmp slt i32 %45, %48
  br i1 %49, label %50, label %64

50:                                               ; preds = %44
  %51 = load i8*, i8** %1, align 8
  %52 = load i32, i32* %4, align 4
  %53 = sext i32 %52 to i64
  %54 = getelementptr inbounds i8, i8* %51, i64 %53
  %55 = load i8, i8* %54, align 1
  %56 = sext i8 %55 to i32
  %57 = load i32, i32* %7, align 4
  %58 = icmp eq i32 %56, %57
  br i1 %58, label %59, label %60

59:                                               ; preds = %50
  br label %64

60:                                               ; preds = %50
  br label %61

61:                                               ; preds = %60
  %62 = load i32, i32* %4, align 4
  %63 = add nsw i32 %62, 1
  store i32 %63, i32* %4, align 4
  br label %44

64:                                               ; preds = %59, %44
  %65 = load i8*, i8** %3, align 8
  %66 = load i8*, i8** %1, align 8
  %67 = load i32, i32* %4, align 4
  %68 = add nsw i32 %67, 1
  %69 = sext i32 %68 to i64
  %70 = call i8* @strncat(i8* %65, i8* %66, i64 %69) #4
  %71 = load i8*, i8** %3, align 8
  %72 = load i8*, i8** %2, align 8
  %73 = call i8* @strcat(i8* %71, i8* %72) #4
  %74 = load i8*, i8** %3, align 8
  %75 = load i8*, i8** %1, align 8
  %76 = load i32, i32* %4, align 4
  %77 = sext i32 %76 to i64
  %78 = getelementptr inbounds i8, i8* %75, i64 %77
  %79 = getelementptr inbounds i8, i8* %78, i64 1
  %80 = call i8* @strcat(i8* %74, i8* %79) #4
  %81 = load i8*, i8** %3, align 8
  %82 = call i32 (i8*, ...) @printf(i8* getelementptr inbounds ([4 x i8], [4 x i8]* @.str.1, i64 0, i64 0), i8* %81)
  %83 = call noalias i8* @calloc(i64 1, i64 12) #4
  store i8* %83, i8** %1, align 8
  %84 = call noalias i8* @calloc(i64 1, i64 5) #4
  store i8* %84, i8** %2, align 8
  %85 = call noalias i8* @calloc(i64 1, i64 20) #4
  store i8* %85, i8** %3, align 8
  store i32 0, i32* %7, align 4
  br label %11

86:                                               ; preds = %11
  ret void
}

; Function Attrs: nounwind
declare dso_local noalias i8* @calloc(i64, i64) #1

declare dso_local i32 @__isoc99_scanf(i8*, ...) #2

; Function Attrs: nounwind readonly
declare dso_local i64 @strlen(i8*) #3

; Function Attrs: nounwind
declare dso_local i8* @strncat(i8*, i8*, i64) #1

; Function Attrs: nounwind
declare dso_local i8* @strcat(i8*, i8*) #1

declare dso_local i32 @printf(i8*, ...) #2


!llvm.module.flags = !{!0}
!llvm.ident = !{!1}

!0 = !{i32 1, !"wchar_size", i32 4}
!1 = !{!"clang version 10.0.0-4ubuntu1 "}
